(dp0
S'Play my music.mp3.wav'
p1
(cnumpy.core.multiarray
scalar
p2
(cnumpy
dtype
p3
(S'i2'
p4
I0
I1
tp5
Rp6
(I3
S'<'
p7
NNNI-1
I-1
I0
tp8
bS'\xff\x7f'
p9
tp10
Rp11
g2
(g6
S'\x00\x80'
p12
tp13
Rp14
F140.04244897959182
tp15
sS'10_-_inseperable_-_jonas_brothers.mp3.wav'
p16
(g2
(g6
S'\xff\x7f'
p17
tp18
Rp19
g2
(g6
S'\x00\x80'
p20
tp21
Rp22
F170.24
tp23
sS'09_-_when_you_look_me_in_the_eyes_-_jonas_brothers.mp3.wav'
p24
(g2
(g6
S'\xff\x7f'
p25
tp26
Rp27
g2
(g6
S'\x00\x80'
p28
tp29
Rp30
F249.75673469387755
tp31
sS'13_-_year_3000_-_jonas_brothers.mp3.wav'
p32
(g2
(g6
S'\xff\x7f'
p33
tp34
Rp35
g2
(g6
S'\x00\x80'
p36
tp37
Rp38
F202.00489795918367
tp39
sS'14_-_kids_of_the_future_-_jonas_brothers.mp3.wav'
p40
(g2
(g6
S'\xff\x7f'
p41
tp42
Rp43
g2
(g6
S'\x00\x80'
p44
tp45
Rp46
F199.94122448979593
tp47
sS'08_-_games_-_jonas_brothers.mp3.wav'
p48
(g2
(g6
S'\xff\x7f'
p49
tp50
Rp51
g2
(g6
S'\x00\x80'
p52
tp53
Rp54
F201.35183673469388
tp55
sS'03_-_goodnight_and_goodbye_-_jonas_brothers.mp3.wav'
p56
(g2
(g6
S'\xff\x7f'
p57
tp58
Rp59
g2
(g6
S'\x00\x80'
p60
tp61
Rp62
F151.04
tp63
sS"We're All In This Together.mp3.wav"
p64
(g2
(g6
S'\xff\x7f'
p65
tp66
Rp67
g2
(g6
S'\x00\x80'
p68
tp69
Rp70
F231.54938775510203
tp71
sS'Breaking Free(Soaring, flying).mp3.wav'
p72
(g2
(g6
S'>;'
p73
tp74
Rp75
g2
(g6
S'\xd1\xc4'
p76
tp77
Rp78
F219.71591836734694
tp79
sS'05_-_hello_beautiful_-_jonas_brothers.mp3.wav'
p80
(g2
(g6
S'\xff\x7f'
p81
tp82
Rp83
g2
(g6
S'\x00\x80'
p84
tp85
Rp86
F149.1069387755102
tp87
sS'11_-_just_friends_-_jonas_brothers.mp3.wav'
p88
(g2
(g6
S'\xff\x7f'
p89
tp90
Rp91
g2
(g6
S'\x00\x80'
p92
tp93
Rp94
F187.8726530612245
tp95
sS'02 Girl of My Dreams.mp3.wav'
p96
(g2
(g6
S'\xff\x7f'
p97
tp98
Rp99
g2
(g6
S'\x00\x80'
p100
tp101
Rp102
F191.97387755102042
tp103
sS'15_-_bbp_theme_song_(bonus_track)_-_jonas_brothers.mp3.wav'
p104
(g2
(g6
S'\xff\x7f'
p105
tp106
Rp107
g2
(g6
S'\x00\x80'
p108
tp109
Rp110
F60.29061224489796
tp111
sS'Hold on.mp3.wav'
p112
(g2
(g6
S'\xff\x7f'
p113
tp114
Rp115
g2
(g6
S'\x00\x80'
p116
tp117
Rp118
F165.0416326530612
tp119
sS'12_-_hollywood_-_jonas_brothers.mp3.wav'
p120
(g2
(g6
S'\xff\x7f'
p121
tp122
Rp123
g2
(g6
S'\x00\x80'
p124
tp125
Rp126
F169.11673469387756
tp127
sS'07_-_australia_-_jonas_brothers.mp3.wav'
p128
(g2
(g6
S'\xff\x7f'
p129
tp130
Rp131
g2
(g6
S'\x00\x80'
p132
tp133
Rp134
F213.05469387755102
tp135
sS'GreenDay_Wake me Up.mp3.wav'
p136
(g2
(g6
S'\xff\x7f'
p137
tp138
Rp139
g2
(g6
S'\x00\x80'
p140
tp141
Rp142
F285.7273469387755
tp143
sS'06_-_still_in_love_with_you_-_jonas_brothers.mp3.wav'
p144
(g2
(g6
S'\xff\x7f'
p145
tp146
Rp147
g2
(g6
S'\x00\x80'
p148
tp149
Rp150
F190.45877551020408
tp151
sS"Burnin' up.mp3.wav"
p152
(g2
(g6
S'\xff\x7f'
p153
tp154
Rp155
g2
(g6
S'\x00\x80'
p156
tp157
Rp158
F175.15102040816328
tp159
sS'Stick To The Status Quo.mp3.wav'
p160
(g2
(g6
S'5-'
p161
tp162
Rp163
g2
(g6
S'P\xd1'
p164
tp165
Rp166
F260.57142857142856
tp167
sS'American.mp3.wav'
p168
(g2
(g6
S'\xff\x7f'
p169
tp170
Rp171
g2
(g6
S'\x00\x80'
p172
tp173
Rp174
F173.87102040816328
tp175
sS'American Dragon Jake Long.mp3.wav'
p176
(g2
(g6
S'!#'
p177
tp178
Rp179
g2
(g6
S'u\xd7'
p180
tp181
Rp182
F59.820408163265306
tp183
sS'Start Of Something New.mp3.wav'
p184
(g2
(g6
S'\xe0?'
p185
tp186
Rp187
g2
(g6
S'>\xc3'
p188
tp189
Rp190
F204.5387755102041
tp191
sS'SOS.mp3.wav'
p192
(g2
(g6
S'\x8a_'
p193
tp194
Rp195
g2
(g6
S'z\x9c'
p196
tp197
Rp198
F150.96163265306123
tp199
sS'Green Day  - Boulevard Of Broken Dreams.mp3.wav'
p200
(g2
(g6
S'\xff\x7f'
p201
tp202
Rp203
g2
(g6
S'\x00\x80'
p204
tp205
Rp206
F241.6065306122449
tp207
sS'Greenday vs Oasis.mp3.wav'
p208
(g2
(g6
S'(|'
p209
tp210
Rp211
g2
(g6
S'(\x84'
p212
tp213
Rp214
F274.2857142857143
tp215
sS"04_-_that's_just_the_way_we_roll_-_jonas_brothers.mp3.wav"
p216
(g2
(g6
S'\xff\x7f'
p217
tp218
Rp219
g2
(g6
S'\x00\x80'
p220
tp221
Rp222
F173.0612244897959
tp223
s.